; Function Attrs: mustprogress nounwind uwtable
define hidden noundef range(i32 -2147483647, -2147483648) i32 @_ZN15MultiBranchData18compute_cell_countEP14BytecodeStream(ptr nocapture noundef readonly %0) local_unnamed_addr #2 align 2 {
  %2 = getelementptr inbounds i8, ptr %0, i64 44
  %3 = load i32, ptr %2, align 4
  %4 = icmp eq i32 %3, 170
  %5 = getelementptr inbounds i8, ptr %0, i64 8
  %6 = load ptr, ptr %5, align 8
  %7 = getelementptr inbounds i8, ptr %6, i64 8
  %8 = load ptr, ptr %7, align 8
  %9 = getelementptr inbounds i8, ptr %8, i64 56
  %10 = getelementptr inbounds i8, ptr %0, i64 24
  %11 = load i32, ptr %10, align 8
  %12 = sext i32 %11 to i64
  %13 = getelementptr inbounds i8, ptr %9, i64 %12
  %14 = load i8, ptr %13, align 1
  %.not.i.i.i = icmp eq i8 %14, -54
  br i1 %4, label %15, label %32

15:                                               ; preds = %1
  br i1 %.not.i.i.i, label %16, label %_ZN20Bytecode_tableswitchC2EP6MethodPh.exit

16:                                               ; preds = %15
  %17 = tail call noundef i32 @_ZN9Bytecodes22non_breakpoint_code_atEPK6MethodPh(ptr noundef nonnull %6, ptr noundef nonnull %13) #20
  br label %_ZN20Bytecode_tableswitchC2EP6MethodPh.exit

_ZN20Bytecode_tableswitchC2EP6MethodPh.exit:      ; preds = %15, %16
  %18 = getelementptr inbounds i8, ptr %13, i64 9
  %19 = ptrtoint ptr %18 to i64
  %20 = add i64 %19, 3
  %21 = and i64 %20, -4
  %22 = inttoptr i64 %21 to ptr
  %.0.i.i.i.i.i.i = load i32, ptr %22, align 4
  %23 = tail call noundef i32 @llvm.bswap.i32(i32 %.0.i.i.i.i.i.i)
  %24 = getelementptr inbounds i8, ptr %13, i64 5
  %25 = ptrtoint ptr %24 to i64
  %26 = add i64 %25, 3
  %27 = and i64 %26, -4
  %28 = inttoptr i64 %27 to ptr
  %.0.i.i.i.i.i1.i = load i32, ptr %28, align 4
  %29 = tail call noundef i32 @llvm.bswap.i32(i32 %.0.i.i.i.i.i1.i)
  %30 = add i32 %23, 1
  %31 = sub i32 %30, %29
  br label %41

32:                                               ; preds = %1
  br i1 %.not.i.i.i, label %33, label %_ZN21Bytecode_lookupswitchC2EP6MethodPh.exit

33:                                               ; preds = %32
  %34 = tail call noundef i32 @_ZN9Bytecodes22non_breakpoint_code_atEPK6MethodPh(ptr noundef nonnull %6, ptr noundef nonnull %13) #20
  br label %_ZN21Bytecode_lookupswitchC2EP6MethodPh.exit

_ZN21Bytecode_lookupswitchC2EP6MethodPh.exit:     ; preds = %32, %33
  %35 = getelementptr inbounds i8, ptr %13, i64 5
  %36 = ptrtoint ptr %35 to i64
  %37 = add i64 %36, 3
  %38 = and i64 %37, -4
  %39 = inttoptr i64 %38 to ptr
  %.0.i.i.i.i.i = load i32, ptr %39, align 4
  %40 = tail call noundef i32 @llvm.bswap.i32(i32 %.0.i.i.i.i.i)
  br label %41

41:                                               ; preds = %_ZN21Bytecode_lookupswitchC2EP6MethodPh.exit, %_ZN20Bytecode_tableswitchC2EP6MethodPh.exit
  %.0.in.in = phi i32 [ %31, %_ZN20Bytecode_tableswitchC2EP6MethodPh.exit ], [ %40, %_ZN21Bytecode_lookupswitchC2EP6MethodPh.exit ]
  %.0.in = shl i32 %.0.in.in, 1
  %.0 = add i32 %.0.in, 3
  ret i32 %.0
}